target datalayout = "e-m:e-p270:32:32-p271:32:32-p272:64:64-i64:64-i128:128-f80:128-n8:16:32:64-S128"
target triple = "x86_64-pc-linux-gnu"

@hf_fcs_portname = internal global i32 0, align 4
@hf_fcs_porttype = internal global i32 0, align 4
@hf_fcs_portflags = internal global i32 0, align 4
@hf_fcfcs_num_attached_port_entries = internal global i32 0, align 4

; Function Attrs: nounwind uwtable
define internal void @dissect_fcfcs_gapnl(ptr noundef %0, ptr noundef %1, i32 noundef %2) #0 {
  %4 = alloca ptr, align 8
  %5 = alloca ptr, align 8
  %6 = alloca i32, align 4
  %7 = alloca i32, align 4
  %8 = alloca i32, align 4
  %9 = alloca i32, align 4
  store ptr %0, ptr %4, align 8
  store ptr %1, ptr %5, align 8
  store i32 %2, ptr %6, align 4
  store i32 16, ptr %7, align 4
  %10 = load ptr, ptr %5, align 8
  %11 = icmp ne ptr %10, null
  br i1 %11, label %12, label %58

12:                                               ; preds = %3
  %13 = load i32, ptr %6, align 4
  %14 = icmp ne i32 %13, 0
  br i1 %14, label %15, label %21

15:                                               ; preds = %12
  %16 = load ptr, ptr %5, align 8
  %17 = load i32, ptr @hf_fcs_portname, align 4
  %18 = load ptr, ptr %4, align 8
  %19 = load i32, ptr %7, align 4
  %20 = call ptr @proto_tree_add_item(ptr noundef %16, i32 noundef %17, ptr noundef %18, i32 noundef %19, i32 noundef 8, i32 noundef 0)
  br label %57

21:                                               ; preds = %12
  %22 = load ptr, ptr %5, align 8
  %23 = load i32, ptr @hf_fcfcs_num_attached_port_entries, align 4
  %24 = load ptr, ptr %4, align 8
  %25 = load i32, ptr %7, align 4
  %26 = call ptr @proto_tree_add_item_ret_uint(ptr noundef %22, i32 noundef %23, ptr noundef %24, i32 noundef %25, i32 noundef 4, i32 noundef 0, ptr noundef %8)
  %27 = load i32, ptr %7, align 4
  %28 = add i32 %27, 4
  store i32 %28, ptr %7, align 4
  store i32 0, ptr %9, align 4
  br label %29

29:                                               ; preds = %53, %21
  %30 = load i32, ptr %9, align 4
  %31 = load i32, ptr %8, align 4
  %32 = icmp ult i32 %30, %31
  br i1 %32, label %33, label %56

33:                                               ; preds = %29
  %34 = load ptr, ptr %5, align 8
  %35 = load i32, ptr @hf_fcs_portname, align 4
  %36 = load ptr, ptr %4, align 8
  %37 = load i32, ptr %7, align 4
  %38 = call ptr @proto_tree_add_item(ptr noundef %34, i32 noundef %35, ptr noundef %36, i32 noundef %37, i32 noundef 8, i32 noundef 0)
  %39 = load ptr, ptr %5, align 8
  %40 = load i32, ptr @hf_fcs_portflags, align 4
  %41 = load ptr, ptr %4, align 8
  %42 = load i32, ptr %7, align 4
  %43 = add i32 %42, 10
  %44 = call ptr @proto_tree_add_item(ptr noundef %39, i32 noundef %40, ptr noundef %41, i32 noundef %43, i32 noundef 1, i32 noundef 0)
  %45 = load ptr, ptr %5, align 8
  %46 = load i32, ptr @hf_fcs_porttype, align 4
  %47 = load ptr, ptr %4, align 8
  %48 = load i32, ptr %7, align 4
  %49 = add i32 %48, 11
  %50 = call ptr @proto_tree_add_item(ptr noundef %45, i32 noundef %46, ptr noundef %47, i32 noundef %49, i32 noundef 1, i32 noundef 0)
  %51 = load i32, ptr %7, align 4
  %52 = add i32 %51, 12
  store i32 %52, ptr %7, align 4
  br label %53

53:                                               ; preds = %33
  %54 = load i32, ptr %9, align 4
  %55 = add i32 %54, 1
  store i32 %55, ptr %9, align 4
  br label %29, !llvm.loop !9

56:                                               ; preds = %29
  br label %57

57:                                               ; preds = %56, %15
  br label %58

58:                                               ; preds = %57, %3
  ret void
}