; Function Attrs: nounwind uwtable
define internal fastcc void @dissect_fcfcs_gapnl(ptr noundef %0, ptr noundef %1, i32 noundef range(i32 0, 2) %2) unnamed_addr #0 {
  %4 = alloca i32, align 4
  %.not = icmp eq ptr %1, null
  br i1 %.not, label %.loopexit, label %5

5:                                                ; preds = %3
  %.not22 = icmp eq i32 %2, 0
  br i1 %.not22, label %9, label %6

6:                                                ; preds = %5
  %7 = load i32, ptr @hf_fcs_portname, align 4
  %8 = tail call ptr @proto_tree_add_item(ptr noundef nonnull %1, i32 noundef %7, ptr noundef %0, i32 noundef 16, i32 noundef 8, i32 noundef 0) #4
  br label %.loopexit

9:                                                ; preds = %5
  %10 = load i32, ptr @hf_fcfcs_num_attached_port_entries, align 4
  %11 = call ptr @proto_tree_add_item_ret_uint(ptr noundef nonnull %1, i32 noundef %10, ptr noundef %0, i32 noundef 16, i32 noundef 4, i32 noundef 0, ptr noundef nonnull %4) #4
  %12 = load i32, ptr %4, align 4
  %.not25 = icmp eq i32 %12, 0
  br i1 %.not25, label %.loopexit, label %.lr.ph

.lr.ph:                                           ; preds = %9, %.lr.ph
  %.024 = phi i32 [ %22, %.lr.ph ], [ 0, %9 ]
  %.02023 = phi i32 [ %21, %.lr.ph ], [ 20, %9 ]
  %13 = load i32, ptr @hf_fcs_portname, align 4
  %14 = call ptr @proto_tree_add_item(ptr noundef nonnull %1, i32 noundef %13, ptr noundef %0, i32 noundef %.02023, i32 noundef 8, i32 noundef 0) #4
  %15 = load i32, ptr @hf_fcs_portflags, align 4
  %16 = add i32 %.02023, 10
  %17 = call ptr @proto_tree_add_item(ptr noundef nonnull %1, i32 noundef %15, ptr noundef %0, i32 noundef %16, i32 noundef 1, i32 noundef 0) #4
  %18 = load i32, ptr @hf_fcs_porttype, align 4
  %19 = add i32 %.02023, 11
  %20 = call ptr @proto_tree_add_item(ptr noundef nonnull %1, i32 noundef %18, ptr noundef %0, i32 noundef %19, i32 noundef 1, i32 noundef 0) #4
  %21 = add i32 %.02023, 12
  %22 = add nuw i32 %.024, 1
  %23 = load i32, ptr %4, align 4
  %24 = icmp ult i32 %22, %23
  br i1 %24, label %.lr.ph, label %.loopexit, !llvm.loop !9

.loopexit:                                        ; preds = %.lr.ph, %9, %6, %3
  ret void
}